(lp0
V.
p1
aV,
p2
aVI
p3
aVThe
p4
aVplace
p5
aV!
p6
aVchocolate
p7
aVfood
p8
aVgood
p9
aVWe
p10
aVservice
p11
aVn't
p12
aVorder
p13
aVcoffee
p14
aVcome
p15
aVgreat
p16
aVlike
p17
aV(
p18
aV)
p19
aVtime
p20
aVmenu
p21
aV-
p22
aV's
p23
aVbreakfast
p24
aVIt
p25
aV...
p26
aVbad
p27
aVrestaurant
p28
aVnice
p29
aVdish
p30
aVdrink
p31
aVdessert
p32
aVMax
p33
aVAviv
p34
aVTel
p35
aVminute
p36
aVThis
p37
aVwait
p38
aVu
p39
aVreally
p40
aVBrenner
p41
aVeat
p42
aVmake
p43
aVask
p44
aVtry
p45
aVtable
p46
aVlook
p47
aVvisit
p48
aVserve
p49
aVfriend
p50
aVwant
p51
aV've
p52
aVsalad
p53
aVsweet
p54
aVsit
p55
aV``
p56
aVtaste
p57
aV''
p58
aVhot
p59
aVtasty
p60
aVGreat
p61
aVexperience
p62
aVThey
p63
aVlunch
p64
aVwaiter
p65
aVenjoy
p66
aVmeal
p67
aVprice
p68
aVcream
p69
aVsmall
p70
aVstaff
p71
aVA
p72
aVsay
p73
aVCafe
p74
aVbest
p75
aVleave
p76
aVcafe
p77
aVdelicious
p78
aVlove
p79
aVIf
p80
aVpeople
p81
aVlocation
p82
aVwaitress
p83
aVice
p84
aVarrive
p85
aV:
p86
aVfresh
p87
aVatmosphere
p88
aVsandwich
p89
aVtell
p90
aVspecial
p91
aV2
p92
aVBut
p93
aVfriendly
p94
aV?
p95
aVrecommend
p96
aVshop
p97
aVAnd
p98
aVdinner
p99
aVMy
p100
aVterrible
p101
aVYou
p102
aVpastry
p103
aV'm
p104
aVthing
p105
aVuse
p106
aVday
p107
aVbread
p108
aVnight
p109
aVThere
p110
aVdesert
p111
aVlittle
p112
aVway
p113
aVmorning
p114
aVService
p115
aVfamily
p116
aVcold
p117
aV10
p118
aVexpect
p119
aVbig
p120
aVAfter
p121
aVcake
p122
aVbranch
p123
aVexcellent
p124
aVwater
p125
aVaverage
p126
aVreview
p127
aVIsrael
p128
aVwonderful
p129
aVmarket
p130
aVlong
p131
aVslow
p132
aVWhen
p133
aV20
p134
aVChocolate
p135
aVbit
p136
aVIsraeli
p137
aVarea
p138
aVworth
p139
aVawful
p140
aVbar
p141
aVoffer
p142
aVmediocre
p143
aVport
p144
aVdifferent
p145
aVlot
p146
aVlarge
p147
aVVery
p148
aVthink
p149
aVamazing
p150
aVkid
p151
aVchoice
p152
aVegg
p153
aVIn
p154
aVkind
p155
aVpretty
p156
aVquality
p157
aVknow
p158
aVbuy
p159
aVportion
p160
aVWent
p161
aVbusy
p162
aVmain
p163
aVfruit
p164
aVmoney
p165
aV4
p166
aVNo
p167
aVpoor
p168
aVclean
p169
aVcup
p170
aVinclude
p171
aV&
p172
aVwalk
p173
aVnew
p174
aVpizza
p175
aVplate
p176
aVtoday
p177
aVquite
p178
aVpay
p179
aVfondue
p180
aVok
p181
aVshare
p182
aVfun
p183
aV're
p184
aVNice
p185
aVstop
p186
aVneed
p187
aVhome
p188
aVend
p189
aVstreet
p190
aVlovely
p191
aVcourse
p192
aVDo
p193
aVseat
p194
aV3
p195
aVtea
p196
aVmilkshake
p197
aVhour
p198
aVjuice
p199
aVFood
p200
aVexpensive
p201
aVNot
p202
aV;
p203
aVlight
p204
aVbring
p205
aVvalue
p206
aVtel
p207
aVregular
p208
aVspeak
p209
aVchild
p210
aV30
p211
aVright
p212
aVafternoon
p213
aVspot
p214
aVEverything
p215
aVbeach
p216
aVyear
p217
aV15
p218
aVlater
p219
aVhungry
p220
aVoutside
p221
aVdirty
p222
aVwife
p223
aVfeel
p224
aVmiss
p225
aVoption
p226
aVFor
p227
aVhigh
p228
aVcounter
p229
aVstart
p230
aVmin
p231
aVsecond
p232
aVmusic
p233
aVwarm
p234
aVwaffle
p235
aVwatch
p236
aVvegetable
p237
aVold
p238
aVmanager
p239
aVquick
p240
aVchange
p241
aVaviv
p242
aVcheese
p243
aVespecially
p244
aVcheap
p245
aVbusiness
p246
aVforget
p247
aVpast
p248
aVSo
p249
aVattitude
p250
aVsimple
p251
aVcouple
p252
aVperfect
p253
aVwrite
p254
aVstuff
p255
aVGood
p256
aVca
p257
aVlocate
p258
aVItalian
p259
aVAll
p260
aVrich
p261
aVaway
p262
aVamaze
p263
aVvegan
p264
aVrun
p265
aVOur
p266
aVcute
p267
aVhalf
p268
aVattentive
p269
aVweek
p270
aVfinish
p271
aVrest
p272
aVserver
p273
aVrude
p274
aVlate
p275
aVunderstand
p276
aVTheir
p277
aVreceive
p278
aVshekel
p279
aVowner
p280
aVSaturday
p281
aVchicken
p282
aVdecent
p283
aVJaffa
p284
aVfantastic
p285
aVglass
p286
aVwrong
p287
aVtourist
p288
aVbreak
p289
aVnear
p290
aVbrenner
p291
aVcrowd
p292
aV'd
p293
aVpotato
p294
aVchain
p295
aVyummy
p296
aVcool
p297
aVhealthy
p298
aVbirthday
p299
aVcare
p300
aVEven
p301
aVwhite
p302
aVsaw
p303
aVsure
p304
aVevening
p305
aVworld
p306
aVauthentic
p307
aVactually
p308
aVbase
p309
aVnumber
p310
aVsalmon
p311
aVHad
p312
aVreal
p313
aVOK
p314
aVcustomer
p315
aVdidnt
p316
aVvariety
p317
aVlover
p318
aVselection
p319
aVNIS
p320
aVtype
p321
aVroom
p322
aVwork
p323
aVdisappoint
p324
aVstandard
p325
aVdefinitely
p326
aVIts
p327
aVwo
p328
aVtiny
p329
aVgift
p330
aVtip
p331
aVchair
p332
aVchip
p333
aV1
p334
aVinteresting
p335
aVShe
p336
aVsize
p337
aVcity
p338
aVhorrible
p339
aVreturn
p340
aVromantic
p341
aVsmile
p342
aVdecide
p343
aVneighborhood
p344
aVdesign
p345
aVvegetarian
p346
aVstore
p347
aVextremely
p348
aVfine
p349
aVhostess
p350
aVpack
p351
aV%
p352
aVlet
p353
aVStaff
p354
aVvibe
p355
aV'
p356
aVlocal
p357
aVgrab
p358
aVkosher
p359
aVtreat
p360
aVpresent
p361
aVFriday
p362
aVadd
p363
aVRothschild
p364
aVproblem
p365
aVstay
p366
aVwine
p367
aVfree
p368
aVsoda
p369
aVcalorie
p370
aVsugar
p371
aVmug
p372
aVbeer
p373
aVFirst
p374
aVhappy
p375
aVmilk
p376
aVitem
p377
aVsoup
p378
aVwinter
p379
aVproduct
p380
aVmax
p381
aVremember
p382
aVgroup
p383
aVRamat
p384
aVcelebrate
p385
aVtasteless
p386
aVmiddle
p387
aVPort
p388
aVTerrible
p389
aVdisappointed
p390
aVCame
p391
aVfavorite
p392
aVtoilet
p393
aVpick
p394
aVpossible
p395
aVtown
p396
aVhuge
p397
aV25
p398
aVhard
p399
aVShaked
p400
aVdisappointing
p401
aVoverprice
p402
aVline
p403
aVAs
p404
aVAt
p405
aVmeet
p406
aVorange
p407
aVOn
p408
aVattention
p409
aVCoffee
p410
aVavoid
p411
aVpasta
p412
aVhappen
p413
aVdaughter
p414
aVmess
p415
aVmean
p416
aVExcellent
p417
aVThen
p418
aVtoast
p419
aVfry
p420
aVTry
p421
aVhear
p422
aVJust
p423
aVcost
p424
aVinside
p425
aVambience
p426
aVtotally
p427
aVdark
p428
aVlack
p429
aVstyle
p430
aVPoor
p431
aVfamous
p432
aVclose
p433
aVprobably
p434
aVsimply
p435
aVWas
p436
aVperson
p437
aVDefinitely
p438
aVHighly
p439
aVNothing
p440
aVAroma
p441
aVTo
p442
aVago
p443
aVsend
p444
aVingredient
p445
aVcozy
p446
aV8
p447
aVchoose
p448
aVbother
p449
aVcomfortable
p450
aVface
p451
aVfact
p452
aVWould
p453
aVwaste
p454
aVcoffe
p455
aV45
p456
aV40
p457
aVitalian
p458
aVReally
p459
aVquickly
p460
aVsorry
p461
aVadult
p462
aVanswer
p463
aVhang
p464
aVbitter
p465
aVfeeling
p466
aVkitchen
p467
aVsuppose
p468
aVmistake
p469
aVdisappear
p470
aVLulu
p471
aVeasy
p472
aVunique
p473
aV50
p474
aVdeal
p475
aVsuper
p476
aVconcept
p477
aVcook
p478
aVsign
p479
aVlive
p480
aVBen
p481
aVPizza
p482
aVcocktail
p483
aVcrepe
p484
aVshake
p485
aVfactory
p486
aVopen
p487
aVwide
p488
aVsunset
p489
aVcorner
p490
aVquiet
p491
aVsummer
p492
aVAmazing
p493
aVmarshmallow
p494
aVprepare
p495
aVlow
p496
aV5
p497
aVOverall
p498
aVcharge
p499
aVKosher
p500
aVbasically
p501
aVrefuse
p502
aVdream
p503
aVsauce
p504
aVBar
p505
aVfish
p506
aVidea
p507
aVpleasant
p508
aVstale
p509
aVparticularly
p510
aVFrench
p511
aVBoth
p512
aVEnglish
p513
aVyesterday
p514
aVearly
p515
aVspend
p516
aVhelpful
p517
aVignore
p518
aVchat
p519
aVdisgust
p520
aVtomato
p521
aVExpensive
p522
aVmention
p523
aVboring
p524
aVbagel
p525
aVfocaccia
p526
aVsnack
p527
aVAvoid
p528
aVwish
p529
aVstar
p530
aVfelt
p531
aVDoes
p532
aVvenue
p533
aVrequest
p534
aVherb
p535
aVdry
p536
aVAlso
p537
aVmachine
p538
aVavocado
p539
aVreasonable
p540
aVmini
p541
aVmind
p542
aVmint
p543
aVrecommended
p544
aVplenty
p545
aVrice
p546
aVnicely
p547
aVtwice
p548
aVTook
p549
aVapproach
p550
aVrefill
p551
aVCa
p552
aVlasagna
p553
aVhand
p554
aVdelight
p555
aVtuna
p556
aVprevious
p557
aVdesire
p558
aVremind
p559
aVBeen
p560
aVcreative
p561
aVBest
p562
aVtrue
p563
aVtrendy
p564
aVtrip
p565
aVfloor
p566
aVtin
p567
aVapology
p568
aVcertainly
p569
aVfinally
p570
aVbrownie
p571
aVdie
p572
aVfrench
p573
aVusually
p574
aVheart
p575
aVtalk
p576
aVgirl
p577
aVcard
p578
aVhug
p579
aVinterior
p580
aVperformance
p581
aVbuffet
p582
aVtruly
p583
aVunusual
p584
aVbowl
p585
aVcheck
p586
aVoutdoor
p587
aVLocated
p588
aVNew
p589
aVpolite
p590
aVStopped
p591
aVSmall
p592
aVStreet
p593
aVoriginal
p594
aVmonth
p595
aVBrown
p596
aVfan
p597
aVburger
p598
aVOnly
p599
aVpass
p600
aVToo
p601
aVdoor
p602
aVshort
p603
aVpleasure
p604
aVshakshuka
p605
aVcomplain
p606
aVhouse
p607
aVissue
p608
aVdont
p609
aVbland
p610
aVTLV
p611
aVhotel
p612
aVplay
p613
aVWhile
p614
aVbody
p615
aVset
p616
aVsea
p617
aVpoint
p618
aVpricey
p619
aVdecadent
p620
aVItaly
p621
aVanymore
p622
aVconcoction
p623
aV$
p624
aVabsolutely
p625
aVrange
p626
aVEvery
p627
aVhair
p628
aVbeverage
p629
aVBasel
p630
aVoverpriced
p631
aVVisited
p632
aVstarter
p633
aVclient
p634
aVflea
p635
aVlentil
p636
aVcompletely
p637
aVmanagement
p638
aVtire
p639
aVlucky
p640
aVPrices
p641
aVOnce
p642
aVcontain
p643
aVview
p644
aVwall
p645
aVbrunch
p646
aVholiday
p647
aVBeach
p648
aVFriendly
p649
aVenglish
p650
aVusual
p651
aVBe
p652
aVgenerous
p653
aVUnfortunately
p654
aVHowever
p655
aVhost
p656
aVgluten
p657
aVpiece
p658
aV'll
p659
aVpatisserie
p660
aVpoorly
p661
aVwhatsoever
p662
aVGo
p663
aVchef
p664
aVfabulous
p665
aVSurprisingly
p666
aVhighly
p667
aVStay
p668
aVwarn
p669
aVdecoration
p670
aVword
p671
aVordinary
p672
aVfudge
p673
aVpurchase
p674
aVgreet
p675
aVgreen
p676
aVenter
p677
aVinnovative
p678
aVpersonal
p679
aVfix
p680
aVcombination
p681
aVsurprise
p682
aVgreasy
p683
aVloud
p684
aVopportunity
p685
aVpraline
p686
aV192
p687
aVTel-Aviv
p688
aVdog
p689
aVGova
p690
aVdespite
p691
aVBUT
p692
aVlife
p693
aVmushroom
p694
aVcraft
p695
aVsuggest
p696
aVFondue
p697
aVshout
p698
aVsave
p699
aVhat
p700
aVXoho
p701
aVtopping
p702
aVplus
p703
aVslightly
p704
aVson
p705
aVform
p706
aVflavour
p707
aVmold
p708
aVsmell
p709
aVwelcome
p710
aVdiet
p711
aVguy
p712
aVmelt
p713
aVweird
p714
aVWorst
p715
aVsharing
p716
aVeffort
p717
aVactual
p718
aVdate
p719
aVfilthy
p720
aVgrandson
p721
aVinform
p722
aVtypical
p723
aVspace
p724
aVboulevard
p725
aVefficient
p726
aVdining
p727
aVRecommend
p728
aVnearly
p729
aVHaving
p730
aVhusband
p731
aVWaiters
p732
aVnotice
p733
aVNote
p734
aVoverdose
p735
aVflavor
p736
aVBelgian
p737
aVchoclate
p738
aVoverly
p739
aVfell
p740
aVstand
p741
aVroad
p742
aVfast
p743
aVHotel
p744
aVspice
p745
aVHouse
p746
aVHow
p747
aVdeserve
p748
aVtehina
p749
aVpresentation
p750
aVwoman
p751
aVfar
p752
aVheaven
p753
aV--
p754
aVlist
p755
aVBreakfast
p756
aVunprofessional
p757
aV6
p758
aVisrael
p759
aVhamburger
p760
aVaccept
p761
aVcrowded
p762
aVpatio
p763
aVWhat
p764
aVarrogant
p765
aVimagine
p766
aVRude
p767
aVlobby
p768
aVsyrup
p769
aVbelieve
p770
aVsell
p771
aVcharm
p772
aVPerfect
p773
aVvarious
p774
aVrave
p775
aVMost
p776
aVLevinsky
p777
aVOld
p778
aVMarket
p779
aVthats
p780
aVsurprised
p781
aVpopular
p782
aVeating
p783
aVhomemade
p784
aVinvite
p785
aVproperly
p786
aVdull
p787
aVIce
p788
aVdiverse
p789
aVYehuda
p790
aVmayonnaise
p791
aVprepared
p792
aVquinoa
p793
aVWaffle
p794
aVexist
p795
aVspoon
p796
aVEnjoy
p797
aVespresso
p798
aV35
p799
aVdoubt
p800
aVcappuccino
p801
aVLovely
p802
aVvaried
p803
aVinstead
p804
aVentree
p805
aVattend
p806
aVRoman
p807
aVtrap
p808
aVambiance
p809
aVice-cream
p810
aVexactly
p811
aVquiche
p812
aVclearly
p813
aVFlea
p814
aVunless
p815
aVSome
p816
aVoccasion
p817
aVYork
p818
aVemployee
p819
aVhope
p820
aVaddition
p821
aVpartner
p822
aVparty
p823
aVlately
p824
aVwet
p825
aVlose
p826
aVrecommendation
p827
aVSorry
p828
aVleaf
p829
aVliterally
p830
aVnoisy
p831
aVmatcha
p832
aVcrave
p833
aVbrand
p834
aVbalcony
p835
aVchocolat
p836
aVBoutique
p837
aVHahayal
p838
aVOrdered
p839
aVencounter
p840
aVwooden
p841
aVBeware
p842
aVspecially
p843
aVconsistent
p844
aVEventually
p845
aV+
p846
aVover-priced
p847
aVTuesday
p848
aVcredit
p849
aVsmoke
p850
aVsuitable
p851
aVrelax
p852
aVhole
p853
aVUnpleasant
p854
aVLord
p855
aVindifferent
p856
aVattract
p857
aVturn
p858
aVtravel
p859
aVhop
p860
aVdescription
p861
aVcroissant
p862
aVappreciate
p863
aVfeedback
p864
aVoven
p865
aVKids
p866
aVindulge
p867
aVIndeed
p868
aVfairly
p869
aVwhip
p870
aVgon
p871
aVheavenly
p872
aVlousy
p873
aVbite
p874
aVton
p875
aVairy
p876
aVhazelnut
p877
aVFun
p878
aVWaitress
p879
aVmatter
p880
aVmodern
p881
aVLandver
p882
aVwell-
p883
aVlunchtime
p884
aVrelatively
p885
aVconvenient
p886
aVrealy
p887
aVWish
p888
aVcoin
p889
aVexplain
p890
aVAsian
p891
aVwatermelon
p892
aVearn
p893
aVdisaster
p894
aVRecommended
p895
aVresult
p896
aVhorrendous
p897
aVyogurt
p898
aVCentral
p899
aVextent
p900
aVcountry
p901
aVargue
p902
aVtough
p903
aVnon
p904
aVbeetroot
p905
aVbathroom
p906
aVbeef
p907
aVbasic
p908
aVteenager
p909
aVexcite
p910
aVexception
p911
aVact
p912
aVhebrew
p913
aVMaybe
p914
aVManager
p915
aVyes
p916
aVSalads
p917
aVEspresso
p918
aVAlice
p919
aVburnt
p920
aVGetting
p921
aVLet
p922
aVHe
p923
aVrestorant
p924
aVcorn
p925
aVdiscount
p926
aVPlace
p927
aVRemo
p928
aVinedible
p929
aVsurround
p930
aVSERVICE
p931
aVaccommodate
p932
aVcreem
p933
aVsupport
p934
aVramat
p935
aVupset
p936
aVsodas
p937
aVna
p938
aVsetting
p939
aVtest
p940
aVroll
p941
aVuneatable
p942
aVstore/restaurant
p943
aVweekend
p944
aVstick
p945
aVskip
p946
aVfocus
p947
aV/
p948
aVunpleasant
p949
aVstring
p950
aVbustle
p951
aVimpressive
p952
aVcooky
p953
aVdip
p954
aVregret
p955
aVdiscover
p956
aVOrange
p957
aVgnocchi
p958
aVpleased
p959
aVsatisfy
p960
aVentertain
p961
aVaddress
p962
aVBrenners
p963
aVbox
p964
aVboy
p965
aVNeve
p966
aVsuggestion
p967
aVprefer
p968
aVsalti
p969
aVpositive
p970
aVThese
p971
aVolive
p972
aVfigure
p973
aVsample
p974
aVBAD
p975
aVFaruk
p976
aVtill
p977
aVWhy
p978
aVsour
p979
aVlatte
p980
aVmembership
p981
aVman
p982
aVmaybe
p983
aVmainly
p984
aVunacceptable
p985
aVterrace
p986
aVsmoothie
p987
aVintroduce
p988
aVppl
p989
aVketchup
p990
aVwont
p991
aVcareless
p992
aVrock
p993
aVSave
p994
aVneighbourhood
p995
aVcorrect
p996
aVhonest
p997
aVdirectly
p998
aVdistrict
p999
aVridiculous
p1000
aVDirty
p1001
aVboyfriend
p1002
aVunfortunately
p1003
aVBread
p1004
aVMain
p1005
aVBeit
p1006
aVbegin
p1007
aVforever
p1008
aVShakshuka
p1009
aVtooth
p1010
aVChef
p1011
aVshot
p1012
aVbright
p1013
aVcalamari
p1014
aVblack
p1015
aVDisappointing
p1016
aVLocation
p1017
aVwonder
p1018
aVisraeli
p1019
aVThat
p1020
aVaffordable
p1021
aVdedicate
p1022
aVdisappointment
p1023
aVpop
p1024
aVILS
p1025
aVconsider
p1026
aVboil
p1027
aVshopping
p1028
aVundercooked
p1029
aVsound
p1030
aVresturant
p1031
aVHillel
p1032
aVaspect
p1033
aVtouch
p1034
aVSeems
p1035
aVAlthough
p1036
aVsticky
p1037
aVread
p1038
aVinsist
p1039
aVmom
p1040
aVseating
p1041
aVSince
p1042
aVhipster
p1043
aVhustle
p1044
aVLater
p1045
aVroast
p1046
aVintimate
p1047
aVequivalent
p1048
aVpackage
p1049
aVmixed
p1050
aVAway
p1051
aVchoclates
p1052
aVRotshild
p1053
aVsyringe
p1054
aVNO
p1055
aVNY
p1056
aVspicy
p1057
aVcomplete
p1058
aVbenedict
p1059
aVomelet
p1060
aVrush
p1061
aVAve
p1062
aVpalate
p1063
aVgirlfriend
p1064
aVbuilding
p1065
aVplatter
p1066
aVTake
p1067
aVcareful
p1068
aVcheerful
p1069
aVsand
p1070
aVActually
p1071
aVsun
p1072
aVoverload
p1073
aVpublic
p1074
aVversion
p1075
aVTotally
p1076
aVexcuse
p1077
aVglad
p1078
aVgrill
p1079
aVmall
p1080
aVSO
p1081
aVbeautiful
p1082
aVcompare
p1083
aVcomfort
p1084
aVfondu
p1085
aVreplace
p1086
aVhelp
p1087
aVsoon
p1088
aVpaper
p1089
aVexact
p1090
aVOverpriced
p1091
aVshock
p1092
aVoil
p1093
aVflower
p1094
aVtiramisu
p1095
aVdefinately
p1096
aVextraordinary
p1097
aVreason
p1098
aVgourmet
p1099
aVdint
p1100
aVstory
p1101
aVguest
p1102
aVstation
p1103
aVbake
p1104
aVespecialy
p1105
aVArak
p1106
aVFresh
p1107
aVTotal
p1108
aVclear
p1109
aVcramped
p1110
aVblend
p1111
aVRotschild
p1112
aVhit
p1113
aVWifi
p1114
aVsunny
p1115
aVAnyway
p1116
aVcreme
p1117
aVavailable
p1118
aVrecently
p1119
aVsouffle
p1120
aVcrispy
p1121
aVgay
p1122
aVfrozen
p1123
aVmatch
p1124
aVBenedict
p1125
aVbeautifully
p1126
aVready
p1127
aVdecor
p1128
aVvirtually
p1129
aV9
p1130
aVassortment
p1131
aVshape
p1132
aVexcited
p1133
aVcomplaint
p1134
aVNis
p1135
aVcreation
p1136
aVphone
p1137
aVcandle
p1138
aVblock
p1139
aVYafo
p1140
aVsuit
p1141
aVforward
p1142
aVrelaxed
p1143
aVspecialty
p1144
aVconsist
p1145
aVpar
p1146
aVsimilar
p1147
aVsingle
p1148
aVEilat
p1149
aVrainy
p1150
aVMay
p1151
aVOpera
p1152
aVcater
p1153
aVutterly
p1154
aVSavior
p1155
aVpractically
p1156
aVage
p1157
aVcooked
p1158
aVyoung
p1159
aVwave
p1160
aVentire
p1161
aVjump
p1162
aVBesides
p1163
aVmanage
p1164
aVbanana-pizza
p1165
aVawesome
p1166
aVlounge
p1167
aVstone
p1168
aVinattentive
p1169
aVcarrot
p1170
aVbeny
p1171
aVestablishment
p1172
aVchocoholic
p1173
aVOne
p1174
aVbakery
p1175
aVallow
p1176
aVwhilst
p1177
aVHerzliya
p1178
aVMosley
p1179
aVadvocado
p1180
aVbufet
p1181
aVLoved
p1182
aVflee
p1183
aVSan
p1184
aVNimrod
p1185
aVpromise
p1186
aVSat
p1187
aVstrip
p1188
aVunbelievable
p1189
aVNext
p1190
aVconfess
p1191
aVAverage
p1192
aVproduce
p1193
aVLamb
p1194
aVschnitzel
p1195
aVaccompany
p1196
aVOMG
p1197
aVable
p1198
aVmix
p1199
aV=
p1200
aVsyrinx
p1201
aVmovie
p1202
aVimpression
p1203
aVParis
p1204
aVChocolat
p1205
aVjam
p1206
aVexceptional
p1207
aVoverall
p1208
aVbean
p1209
aVBecause
p1210
aVpuff
p1211
aVGet
p1212
aVyam
p1213
aVunlike
p1214
aVplain
p1215
aVdust
p1216
aVpleasantly
p1217
aVcenter
p1218
aVantipasti
p1219
aVHave
p1220
aVSunday
p1221
aVcombine
p1222
aVsofa
p1223
aVcandy
p1224
aVsoft
p1225
aVQuite
p1226
aVpepper
p1227
aVTayelet
p1228
aVsister
p1229
aVUS
p1230
aVchocoholics
p1231
aVpreviously
p1232
aVpointless
p1233
aVadditional
p1234
aVWell
p1235
aVbun
p1236
aVcount
p1237
aVdisplay
p1238
aVincredible
p1239
aVNever
p1240
aVbook
p1241
aVgelato
p1242
aVbaked
p1243
aVStrangely
p1244
aVlimited
p1245
aVmid-week
p1246
aVendulge
p1247
aVsleep
p1248
aVdietetic
p1249
aVappetite
p1250
aVruch
p1251
aVMUCH
p1252
aVEuro
p1253
aVriso
p1254
aVlure
p1255
aVCroassonerie
p1256
aVPatisserie
p1257
aVbazel
p1258
aVyellow
p1259
aVWine
p1260
aVRestaurants
p1261
aVprize
p1262
aVclientele
p1263
aVwednesday
p1264
aVBurekas
p1265
aVuncooked
p1266
aVEuropeans
p1267
aVchew
p1268
aV'Health
p1269
aVuneic
p1270
aVFortunately
p1271
aValmond
p1272
aVinsult
p1273
aV49
p1274
aV7th
p1275
aVWanting
p1276
aVair
p1277
aVProfiteroles
p1278
aV8minutes
p1279
aVInitially
p1280
aVcooking
p1281
aVPua
p1282
aVreasoning
p1283
aVUnderstaffed
p1284
aVSoggy
p1285
aVniche
p1286
aVdreadful
p1287
aVavery
p1288
aVmeh
p1289
aVpate
p1290
aVForgotten
p1291
aVpath
p1292
aV100
p1293
aVcardboard
p1294
aVcelebration
p1295
aVOutrageous
p1296
aVExtra
p1297
aVgeneraly
p1298
aVadopt
p1299
aVWonderland
p1300
aVmilitary
p1301
aVgazoz
p1302
aVgrandkids
p1303
aVappropriately
p1304
aVEmenthal
p1305
aVRather
p1306
aVseven
p1307
aVcane
p1308
aVtotal
p1309
aVExpress
p1310
aVnegative
p1311
aVDiners
p1312
aVsurvive
p1313
aVptions
p1314
aVKebab
p1315
aVsuccessful
p1316
aVStronger
p1317
aVhurt
p1318
aVCaramel
p1319
aV90
p1320
aVware
p1321
aV95
p1322
aVsmile..
p1323
aVrood
p1324
aVSmoking
p1325
aVworn
p1326
aVwhack
p1327
aVsweeter
p1328
aVexample
p1329
aVcarmel
p1330
aVvodka
p1331
aVLa
p1332
aVPositive
p1333
aVderty
p1334
aVhardens
p1335
aVgargantuan
p1336
aVSErvice
p1337
aVprovide
p1338
aVfondant
p1339
aVrevisit
p1340
aVchocolate-related
p1341
aVneveragain
p1342
aVbadly
p1343
aVlag
p1344
aVimaginable
p1345
aVWill
p1346
aVYorker
p1347
aVsummarize
p1348
aVGF
p1349
aVgrant
p1350
aVultimate
p1351
aVAnother
p1352
aVWilly
p1353
aVNonetheless
p1354
aVnamal
p1355
aVdeck
p1356
aVBaroch
p1357
aVvary
p1358
aVfabaceae
p1359
aVovel
p1360
aVUrban
p1361
aVshop/restaurant
p1362
aVcrew
p1363
aVbetter
p1364
aVcondition
p1365
aV400
p1366
aVsavory
p1367
aVpotentially
p1368
aVsplit
p1369
aVeventually
p1370
aVDiameter
p1371
aVPros
p1372
aVrunny
p1373
aVbang
p1374
aVtherapy
p1375
aVHospital
p1376
aVthet
p1377
aVRothchild
p1378
aVcapuccino
p1379
aVmeat
p1380
aVreasonably
p1381
aVFour
p1382
aVShame
p1383
aVpanini
p1384
aVchrge
p1385
aVwhim
p1386
aVWow
p1387
aVAnyone
p1388
aVmeny
p1389
aVwhiz
p1390
aVlogo
p1391
aVextract
p1392
aVsaturday
p1393
aVmisfortune
p1394
aVPart
p1395
aVwaive
p1396
aVday.
p1397
aVsparkle
p1398
aVencourage
p1399
aVis-
p1400
aVMust
p1401
aVdisinterested
p1402
aVredevelop
p1403
aVmetallicy
p1404
aVWork
p1405
aVeternal
p1406
aVenormous
p1407
aVHOUR
p1408
aVbannana
p1409
aVdiabetic
p1410
aVMore.When
p1411
aVhopeless
p1412
aVsigar
p1413
aVdaunting
p1414
aVrgular
p1415
aVfullfiling
p1416
aVgrade
p1417
aVPlease
p1418
aVGREAT
p1419
aVmisplace
p1420
aVlettuce
p1421
aVGoing
p1422
aVillustrate
p1423
aVspinach
p1424
aVMess
p1425
aVlicorice
p1426
aVapproximately
p1427
aVresponsable
p1428
aVwildly
p1429
aVgo..
p1430
aVlisten
p1431
aVhangout
p1432
aVLimited
p1433
aVhappily
p1434
aV2am
p1435
aVpeculiar
p1436
aVBeautiful
p1437
aVfrankly
p1438
aVBugrashov
p1439
aVendure
p1440
aVSea
p1441
aVAWFUL
p1442
aVrothchild
p1443
aVseed
p1444
aVmanner
p1445
aVShirel
p1446
aVchurn
p1447
aVcustomise
p1448
aVcrownded
p1449
aVsalat
p1450
aVCatering
p1451
aVhearty
p1452
aVluxury
p1453
aVhome-style
p1454
aV-some
p1455
aVthere-not
p1456
aVBrener
p1457
aVmashed
p1458
aVway.we
p1459
aVaddict
p1460
aVSide
p1461
aVJerusalem
p1462
aVaways
p1463
aVowful
p1464
aVSimply
p1465
aVtech
p1466
aVSUCKS
p1467
aVgreat..
p1468
aVsunbeam
p1469
aVincomplete
p1470
aVreserve
p1471
aVToilets
p1472
aVbeaten
p1473
aVinspire
p1474
aVaspecialy
p1475
aVaspires
p1476
aVnephew
p1477
aVEuropean
p1478
aVpainfully
p1479
aVFree
p1480
aVgood-plus
p1481
aVtheme
p1482
aVblue-haired
p1483
aVmixture
p1484
aVcolorful
p1485
aVdi
p1486
aVNevertheless
p1487
aVTurns
p1488
aVappetizer
p1489
aVLeave
p1490
aVreconstruct
p1491
aVthem..
p1492
aVSaturdays
p1493
aVrothschild
p1494
aVbay
p1495
aV'annoying
p1496
aVgrilled
p1497
aVsteak
p1498
aVfair
p1499
aVheirloom
p1500
aVnut
p1501
aVlemonade
p1502
aVresist
p1503
aVopposite
p1504
aVSydney
p1505
aVfail
p1506
aVmiserable
p1507
aVfauchon
p1508
aVhipsteresque
p1509
aVSaksuka
p1510
aVunable
p1511
aVpreserve
p1512
aVlazy
p1513
aVwinter/early
p1514
aVweak
p1515
aVignorance
p1516
aVwi
p1517
aVcamomile
p1518
aVdevour
p1519
aVyoy
p1520
aVcousin
p1521
aV115
p1522
aVuncreative
p1523
aVsheckle
p1524
aVpity
p1525
aVaccident
p1526
aVcow
p1527
aVhummus
p1528
aVHaBima
p1529
aVThough
p1530
aVunapologetically
p1531
aVTheStreets
p1532
aVSitting
p1533
aVbinge
p1534
aVstadium
p1535
aVprivilege
p1536
aVflexible
p1537
aVwebsite
p1538
aVobese
p1539
aVso-called
p1540
aVsyrops
p1541
aVrecomend
p1542
aVBirnbaum
p1543
aVcatch
p1544
aVchill
p1545
aVUpper
p1546
aVCo
p1547
aVugly
p1548
aVmelted
p1549
aVvoice
p1550
aVimagination
p1551
aVsouse
p1552
aVBusy
p1553
aVHakhayal
p1554
aVsushi
p1555
aVLOL
p1556
aVshame
p1557
aVupscale
p1558
aVil
p1559
aVgrown
p1560
aVthingy
p1561
aVCant
p1562
aVcaffe
p1563
aVharmony
p1564
aVOf
p1565
aVChutzpah
p1566
aVtoasted
p1567
aVevolve
p1568
aValittle
p1569
aVmilky
p1570
aVfood-try
p1571
aVrain
p1572
aVNOT
p1573
aVgarlic
p1574
aVTel-
p1575
aVtune
p1576
aVbutter
p1577
aVperfunctory
p1578
aVpiazza
p1579
aVunseasoned
p1580
aVcharlie
p1581
aVhumble
p1582
aVJewish
p1583
aVNahamal
p1584
aVmother
p1585
aVTrendy
p1586
aVTable
p1587
aVNahlat
p1588
aVleft
p1589
aVbellow
p1590
aVThank
p1591
aVLots
p1592
aVsleepy
p1593
aVidentify
p1594
aVBranch
p1595
aVham
p1596
aVdished
p1597
aVSpinach
p1598
aVshouk
p1599
aVpitsa
p1600
aVspread
p1601
aVwaffels
p1602
aV.though
p1603
aVpitiful
p1604
aVluscious
p1605
aVopt
p1606
aVRestaurant
p1607
aVpleanty
p1608
aVMorning
p1609
aVdiscreet
p1610
aVTel-aviv
p1611
aVbackground
p1612
aVshadow
p1613
aVrumor
p1614
aVapart
p1615
aVArt
p1616
aV58
p1617
aVpatience
p1618
aV54
p1619
aV57
p1620
aVhunt
p1621
aVspecific
p1622
aVmenues
p1623
aVoverrated
p1624
aV5+
p1625
aVwaiter/ess
p1626
aVtastefull
p1627
aVsponge
p1628
aVhassle
p1629
aVcritique
p1630
aVtrip-
p1631
aVhot/cold
p1632
aVdrink/eat
p1633
aVhumor
p1634
aVTERRIBLE
p1635
aVyummie
p1636
aVicy
p1637
aVDrinking
p1638
aVCafes
p1639
aVMe
p1640
aV*very*
p1641
aVbagle
p1642
aVdissapointment
p1643
aVUsed
p1644
aVpost
p1645
aVdiner
p1646
aVBoulevard
p1647
aVfacility
p1648
aVMake
p1649
aVhoneymoon
p1650
aVslurp
p1651
aVsou
p1652
aVsow
p1653
aVwrap
p1654
aVcafeteria
p1655
aVfrightened
p1656
aVprefere
p1657
aVSLOW
p1658
aVamazingly
p1659
aVconstantly
p1660
aVtrendi
p1661
aVCappaccino
p1662
aVgin
p1663
aVunpretentious
p1664
aVdefinatly
p1665
aVKetchup
p1666
aVstarve
p1667
aVheat
p1668
aVdessert/meal
p1669
aVLeft
p1670
aVfresh.i
p1671
aVrestaurant/chocolate
p1672
aV3.5
p1673
aVadore
p1674
aVdecorate
p1675
aVwinery
p1676
aVnahalat
p1677
aVjuvenile
p1678
aVrotisserie
p1679
aVSit
p1680
aVTremendous
p1681
aVSix
p1682
aVPurporting
p1683
aVcrumble
p1684
aVexpertise
p1685
aVpromised
p1686
aVphysical
p1687
aVALSO
p1688
aVAsuta
p1689
aVpicture
p1690
aVcab
p1691
aVArcafee
p1692
aVupdate
p1693
aVMelbourne
p1694
aVBlvd
p1695
aVintent
p1696
aVfaster
p1697
aVassume
p1698
aVpseudo
p1699
aVpush
p1700
aVChicken
p1701
aVyoucant
p1702
aVSituated
p1703
aVaffair
p1704
aVRotwieler
p1705
aVIan
p1706
aVGets
p1707
aVTsedek
p1708
aVrow
p1709
aVadamant
p1710
aVSfarim
p1711
aVpassage
p1712
aVenvironment
p1713
aVFacebook
p1714
aVBinyamin
p1715
aVbrown
p1716
aVThree
p1717
aVrecipe
p1718
aVPlus
p1719
aVtrouble
p1720
aVreservation-got
p1721
aVdin
p1722
aVlevel
p1723
aVmulti-location
p1724
aVaccidentally
p1725
aVsettle
p1726
aVteam
p1727
aVshave
p1728
aVunexpected
p1729
aVport.though
p1730
aVseasoning
p1731
aVbest.I
p1732
aVappear
p1733
aVcleanliness
p1734
aVfresh-out-of-the-oven
p1735
aVDuring
p1736
aVAlong
p1737
aVcornet
p1738
aVdeserts-
p1739
aVYUCK
p1740
aVBrilliant
p1741
aVmuesly
p1742
aVclerk
p1743
aVBenny
p1744
aVboast
p1745
aVMB
p1746
aVshift
p1747
aVproud
p1748
aVPooff
p1749
aVHorrendous
p1750
aVhospitality
p1751
aVMY
p1752
aVneigbourhood
p1753
aVbearable
p1754
aVWheb
p1755
aVteenage
p1756
aVkebab
p1757
aVextra
p1758
aVbasel
p1759
aVRoladin
p1760
aVTherefore
p1761
aVsmallish
p1762
aVeverybody
p1763
aVbite-
p1764
aVBazel
p1765
aVsake
p1766
aVangry
p1767
aVFelt
p1768
aVvariously
p1769
aVLunch
p1770
aVstomach
p1771
aVPity
p1772
aVacceptable
p1773
aVcashier
p1774
aVdrown
p1775
aVstain
p1776
aVchochlate
p1777
aVFair
p1778
aVcar
p1779
aVpretend
p1780
aVcat
p1781
aVmoccachino
p1782
aVmeatball
p1783
aVconfused
p1784
aVcounting
p1785
aVWho
p1786
aVdifferents
p1787
aVoffice
p1788
aVsuck
p1789
aVHubby
p1790
aVgrow
p1791
aVjoint
p1792
aVexplicit
p1793
aVmango
p1794
aVtruck
p1795
aVtahini
p1796
aVport.They
p1797
aVserving
p1798
aVfeature
p1799
aVhachayal
p1800
aVONE
p1801
aVShops
p1802
aVCup
p1803
aVvicinity
p1804
aVstroll
p1805
aVWorld
p1806
aVtomorow
p1807
aVinstantly
p1808
aVtonic
p1809
aVAVOID
p1810
aVChoices
p1811
aVgood-Buy
p1812
aVRome
p1813
aVTower
p1814
aVterm
p1815
aVdrop
p1816
aVavailble
p1817
aVafternoon/evening
p1818
aVsugary
p1819
aVsquare
p1820
aVBeat-it
p1821
aVsweetthooth
p1822
aVcontainer
p1823
aVstumble
p1824
aVsomeplace
p1825
aVseriously
p1826
aVpizzeria
p1827
aVPlaced
p1828
aVunfriendly
p1829
aVAubergine
p1830
aVImpossible
p1831
aVTlV
p1832
aVlanguage
p1833
aVyup
p1834
aVsouce
p1835
aVHarbour
p1836
aVfunky
p1837
aVyum
p1838
aVmassive
p1839
aVchildhood
p1840
aV1000
p1841
aVchocolatier
p1842
aVsock
p1843
aVNehama
p1844
aVfi
p1845
aVcarry
p1846
aVimpossible
p1847
aVring
p1848
aVENJOY
p1849
aVsheer
p1850
aVchoclolate
p1851
aVplastic
p1852
aVSuch
p1853
aVseason
p1854
aVbuth
p1855
aVaftertaste
p1856
aV13
p1857
aV17
p1858
aVGaterie
p1859
aVpoisoning
p1860
aVkikar
p1861
aVgathering
p1862
aVnicer
p1863
aVPhiladelphia
p1864
aVsad
p1865
aVPaying
p1866
aVoffering
p1867
aVnoty
p1868
aVhotspot
p1869
aVzoo
p1870
aVrepeatedly
p1871
aVHalf
p1872
aVchocolate-based
p1873
aV200
p1874
aVmultiple
p1875
aVdeafening
p1876
aVtrace
p1877
aVnormal
p1878
aVcheesecake
p1879
aVtoooo
p1880
aVassault
p1881
aVimportantly
p1882
aVfellafel
p1883
aVmicrowaved
p1884
aVicon
p1885
aVsurprising
p1886
aVcrooked
p1887
aVbarman
p1888
aVoily
p1889
aVprofessional
p1890
aVquantity
p1891
aVrating
p1892
aVlotus
p1893
aVloveat
p1894
aVtend
p1895
aVshoo
p1896
aVunkind
p1897
aVWo
p1898
aVSTARTS
p1899
aVcrime
p1900
aVexplicitly
p1901
aVstaff-fast
p1902
aVchoise
p1903
aVpices
p1904
aV9-Beach
p1905
aVassistant
p1906
aVexpectation
p1907
aVSardona
p1908
aVbagles
p1909
aVsouflfe
p1910
aVsavoury
p1911
aVprime
p1912
aVundertone
p1913
aVtortilla
p1914
aVoother
p1915
aVparking
p1916
aVcocktaily
p1917
aVcauliflower
p1918
aV24/7
p1919
aVdefinite
p1920
aVThan
p1921
aVwhipped
p1922
aVreactant
p1923
aVparent
p1924
aVscreen
p1925
aVsupermarket
p1926
aVReasonable
p1927
aVEach
p1928
aVPlus-
p1929
aVarticle
p1930
aVlevinsky
p1931
aVisrael-
p1932
aVtuck
p1933
aVetc.
p1934
aVcafes
p1935
aVrestroom
p1936
aVtour
p1937
aVrailway
p1938
aVnearby
p1939
aVduty
p1940
aVGvirol
p1941
aVperiod
p1942
aVcoma
p1943
aVexpresso
p1944
aV64
p1945
aV66
p1946
aVcancel
p1947
aV69
p1948
aVcaring
p1949
aVWHOLE
p1950
aVmezze
p1951
aVclassic
p1952
aVvacation
p1953
aVcassis
p1954
aV18:00
p1955
aVKnown
p1956
aVSt.
p1957
aVhardly
p1958
aVenable
p1959
aVsquash
p1960
aVhaunt
p1961
aVwake
p1962
aVOverrated
p1963
aVWAS
p1964
aVBagel
p1965
aVBaruch
p1966
aVfirst-timers
p1967
aVworried
p1968
aVwarning
p1969
aVjoke
p1970
aVsituation
p1971
aVOpen
p1972
aVFactory
p1973
aVobnoxious
p1974
aVeveryday
p1975
aVworry
p1976
aVdoctor
p1977
aV..teh
p1978
aVsketchy
p1979
aVconsumer
p1980
aVThroughout
p1981
aVinoffensive
p1982
aVpan
p1983
aVberry
p1984
aV1950s
p1985
aVrefusal
p1986
aVwolrd
p1987
aVloarge
p1988
aVSoup
p1989
aVLasagna
p1990
aVClean
p1991
aVlemon
p1992
aVIF
p1993
aValltogether
p1994
aVIs
p1995
aVyhe
p1996
aVCarlton
p1997
aVbottle
p1998
aVtaxi
p1999
aVneon
p2000
aVlaptop-free
p2001
aVAntipathetic
p2002
aVkill
p2003
aVfounde
p2004
aVMight
p2005
aVoccasional
p2006
aVgather
p2007
aVdeath
p2008
aVcm
p2009
aVhint
p2010
aVthinking
p2011
aVchoclaty
p2012
aVblog
p2013
aVextensive
p2014
aVkingdom
p2015
aVfrown
p2016
aVMany
p2017
aVtraffic
p2018
aVBazelet
p2019
aVexecution
p2020
aVhaphazardly
p2021
aVShop
p2022
aVmargarine
p2023
aVLondon
p2024
aVnose
p2025
aVtower
p2026
aVBefore
p2027
aVfulfil
p2028
aVdesided
p2029
aVpickled
p2030
aVdivine
p2031
aVexcelent
p2032
aV14:00
p2033
aVconfirm
p2034
aVtube
p2035
aVassemble
p2036
aVre-done
p2037
aVbraught
p2038
aV60cc
p2039
aVexciting
p2040
aVPlaying
p2041
aVom
p2042
aVstaff-
p2043
aVod
p2044
aVinviting
p2045
aVfudgie
p2046
aVchop
p2047
aVpistachio
p2048
aVbonus-nice
p2049
aVluck
p2050
aVlocally
p2051
aVcoupon
p2052
aVAdd
p2053
aVlively
p2054
aVreservation
p2055
aVskillet
p2056
aVweeknight
p2057
aVstrictly
p2058
aVlol
p2059
aVlounging
p2060
aVpoliteness
p2061
aVhamedina
p2062
aVdelicious-
p2063
aVfoam
p2064
aVallergic
p2065
aVrelic
p2066
aVgroan
p2067
aVfanatic
p2068
aVdefrost
p2069
aVregard
p2070
aVHasharon
p2071
aVIrael-chic
p2072
aVbuying
p2073
aVfootball
p2074
aVpull
p2075
aVstrawberry
p2076
aVouting
p2077
aVSpecial
p2078
aVad
p2079
aVdeep
p2080
aVgeneral
p2081
aVHot
p2082
aVGorgeous
p2083
aVmovet
p2084
aVunwelcome
p2085
aVCulinar
p2086
aVRead
p2087
aV2000
p2088
aVrubber
p2089
aVbackgammon
p2090
aVBirenbaum
p2091
aVtepd
p2092
aVLady
p2093
aVdisgraceful
p2094
aVLas
p2095
aVoneself
p2096
aVseparate
p2097
aVpeak
p2098
aVMilky
p2099
aVMexican
p2100
aVLandwer
p2101
aV3-4
p2102
aVmash
p2103
aVPinkas
p2104
aVrepresent
p2105
aVvile
p2106
aVdollar
p2107
aVFlea-market
p2108
aVexecuting
p2109
aVtHe
p2110
aV.escorted
p2111
aVTAV
p2112
aVhot-chocolates
p2113
aVlaid
p2114
aVsparkling
p2115
aVdairy
p2116
aVWonka
p2117
aV14
p2118
aVYaffo
p2119
aVunsatisfying
p2120
aVnite
p2121
aVtalk-
p2122
aVsong
p2123
aVfat
p2124
aVfab
p2125
aVimprove
p2126
aVTired
p2127
aVlaud
p2128
aVcookies
p2129
aVted
p2130
aVtee
p2131
aVinvention
p2132
aVcasual
p2133
aV.the
p2134
aVDelizie
p2135
aVTried
p2136
aVclock
p2137
aVcaffeine
p2138
aVToday
p2139
aVp.m.
p2140
aVBarista
p2141
aVCharlie
p2142
aVsupposedly
p2143
aVstreet-
p2144
aVstrong
p2145
aVAGREE
p2146
aVsquashy
p2147
aVfatter
p2148
aVIgnore
p2149
aVsearch
p2150
aVCons
p2151
aV09.30
p2152
aVAbsolutely
p2153
aVlasagne
p2154
aVairport
p2155
aVCans
p2156
aVaction
p2157
aVnarrow
p2158
aVsufle
p2159
aVreclaimed
p2160
aVsuddenly
p2161
aVexpenseive
p2162
aVindoors
p2163
aVTruly
p2164
aVselect
p2165
aVconventional
p2166
aVeye
p2167
aVdistinct
p2168
aVdestination
p2169
aVpearl
p2170
aVcompensate
p2171
aV47NIS
p2172
aVbinyamin
p2173
aVTal
p2174
aVflat
p2175
aVimmersion
p2176
aVMash
p2177
aVflag
p2178
aVHebrwe
p2179
aVcomepare
p2180
aVparticular
p2181
aVknown
p2182
aVFound
p2183
aVdry.so
p2184
aVpretense
p2185
aVComfortable
p2186
aVTonight
p2187
aVdidn't.We
p2188
aVmale
p2189
aVmarble
p2190
aVminimum
p2191
aVsalty
p2192
aVimitation
p2193
aVsense
p2194
aVmnts
p2195
aVdress
p2196
aVRotchild
p2197
aV5.5
p2198
aVfreshly
p2199
aVbuzzword
p2200
aVcreature
p2201
aVplant
p2202
aVokay
p2203
aVrecived
p2204
aVadvice
p2205
aVreflect
p2206
aVlighting
p2207
aVinvasion
p2208
aVsloppy
p2209
aVresponse
p2210
aVmitzvah
p2211
aVSweet
p2212
aVshady
p2213
aVovernight
p2214
aVBrennar
p2215
aVshade
p2216
aVvintage
p2217
aVslush
p2218
aVmexican
p2219
aVSame
p2220
aVdough
p2221
aVNicoise
p2222
aVhell
p2223
aVclumsily
p2224
aVok.
p2225
aVVisiting
p2226
aV22
p2227
aVAvivians
p2228
aVKeep
p2229
aV..that
p2230
aVEVERY
p2231
aVastonish
p2232
aVpesto
p2233
aVPasta
p2234
aVBad
p2235
aVrank
p2236
aVcompound
p2237
aVOff
p2238
aVeasily
p2239
aVpregnant
p2240
aVfully
p2241
aVLaptop
p2242
aVZedek
p2243
aVmicro
p2244
aVdeffinately
p2245
aV1am
p2246
aVupstairs
p2247
aVweight
p2248
aVWaiting
p2249
aVsurly
p2250
aVevent
p2251
aValcohol
p2252
aVchocaholic
p2253
aVordred
p2254
aVgranola
p2255
aVfountain
p2256
aV7
p2257
aVparadise
p2258
aVbrewery
p2259
aVCool
p2260
aVsarona
p2261
aVbistro
p2262
aVdirt
p2263
aVfriday
p2264
aVsidewalk
p2265
aVscathing
p2266
aV..just
p2267
aVFantastic
p2268
aVlaunch
p2269
aVHatachana
p2270
aVaudacity
p2271
aVw
p2272
aVbelgin
p2273
aVmiso
p2274
aVHuge
p2275
aVdine
p2276
aVradical
p2277
aVfancy
p2278
aVit`s
p2279
aVkobe
p2280
aVintroduction
p2281
aVcomfy
p2282
aVcoctails
p2283
aVpark
p2284
aVimmediate
p2285
aVluckily
p2286
aVb
p2287
aVkindly
p2288
aVdouble
p2289
aVrememberd
p2290
aVsth
p2291
aVoutrageous
p2292
aVexpress
p2293
aVStarter
p2294
aVoutdoors
p2295
aVNowadays
p2296
aVremembers
p2297
aVTraditionally
p2298
aVwasnt
p2299
aVGod
p2300
aVorderd
p2301
aVwaft
p2302
aVsubstantial
p2303
aVGot
p2304
aVthought
p2305
aVself
p2306
aVmenu-breakfast
p2307
aVcouch
p2308
aVGalilee
p2309
aVzucchine
p2310
aVWith
p2311
aVAte
p2312
aVself-serve
p2313
aVperfomance
p2314
aVDizengoff
p2315
aVaircondition
p2316
aVplan
p2317
aV5-7
p2318
aVcover
p2319
aVrefrigirated
p2320
aVId
p2321
aVPelter
p2322
aVgold
p2323
aVNonchalant
p2324
aVconverge
p2325
aVburrata
p2326
aVcrayon
p2327
aVchoco
p2328
aVSpicy
p2329
aVnorthern
p2330
aVruin
p2331
aVHaHayal
p2332
aVCiabatta
p2333
aVcentral
p2334
aVfiend
p2335
aVeveryone-from
p2336
aVcoffee/tea
p2337
aV68
p2338
aVbatter
p2339
aVreplenish
p2340
aVdose
p2341
aVappeal
p2342
aVboard
p2343
aVcaramel
p2344
aVhype
p2345
aVart
p2346
aVDecent
p2347
aVindividual
p2348
aVFounders
p2349
aVNeither
p2350
aVexebition
p2351
aV2.5
p2352
aVbarn
p2353
aV#
p2354
aVMarkets
p2355
aVexchange
p2356
aVweekly
p2357
aVnumerous
p2358
aVFew
p2359
aVsole
p2360
aVServes
p2361
aVspray
p2362
aVlatkes
p2363
aVpremise
p2364
aVcornetto
p2365
aVmega
p2366
aVbarely
p2367
aVdeclare
p2368
aVroman
p2369
aVeggplant
p2370
aVVahezi
p2371
aVYum
p2372
aVYes
p2373
aVsuburbans
p2374
aVCroassons
p2375
aVconsume
p2376
aVdietary
p2377
aVWay
p2378
aVimprovement
p2379
aVprofiterole
p2380
aVstamp
p2381
aVrubbery
p2382
aVmeeting
p2383
aVDegrade
p2384
aVEspecially
p2385
aVshashuka
p2386
aVflavorful
p2387
aVCasino
p2388
aVmannered
p2389
aVdemand
p2390
aVgad
p2391
aVDidnt
p2392
aVloom
p2393
aVpedestrian
p2394
aVstraight
p2395
aVgrainy
p2396
aVsesame
p2397
aVcan`t
p2398
aVpound
p2399
aVvacate
p2400
aVrip
p2401
aVkishes
p2402
aVleaving
p2403
aVmins
p2404
aV'regualr
p2405
aVboxes..
p2406
aVbelong
p2407
aV3.65
p2408
aVwierd
p2409
aVgrand
p2410
aVadvise
p2411
aVcholate
p2412
aV.unfortunately
p2413
aVShabbat
p2414
aVcappucino
p2415
aVcigar
p2416
aVtribble
p2417
aVmoment
p2418
aVShavuot
p2419
aVcucumber
p2420
aVadvertise
p2421
aVstack
p2422
aVrecent
p2423
aVAlmost
p2424
aVhalva
p2425
aVobviously
p2426
aVcranky
p2427
aVbouffet
p2428
aVtast
p2429
aVhome-make
p2430
aVConsidering
p2431
aVroaster
p2432
aVicecreame
p2433
aVJasmine
p2434
aVHorribly
p2435
aVmorsel
p2436
aVCofix
p2437
aVatrocious
p2438
aVWonderful
p2439
aVInternet
p2440
aVreviewer
p2441
aValternative
p2442
aVdrizzled
p2443
aVlady
p2444
aVChocolata
p2445
aVcuz
p2446
aVAsian-style
p2447
aVprominent
p2448
aVbin
p2449
aVLast
p2450
aVOh
p2451
aVDid
p2452
aVgame
p2453
aVprivate
p2454
aVVegee
p2455
aVWaited
p2456
aVonion
p2457
aVconfront
p2458
aVcreaminess
p2459
aVentice
p2460
aVfoolish
p2461
aVgardening
p2462
aV-Nemal
p2463
aVspring
p2464
aVmarmalade
p2465
aVpricing
p2466
aVsight
p2467
aVmirror
p2468
aVfalafel
p2469
aVMehadrin
p2470
aVontop
p2471
aVMizra
p2472
aVfaktory
p2473
aVdishwas
p2474
aVbenefit
p2475
aVbehave
p2476
aVimbue
p2477
aVtemple
p2478
aVSocializing
p2479
aVstew
p2480
aVFruits
p2481
aVmajor
p2482
aVaswell
p2483
aVgoody
p2484
aVdelish
p2485
aVunimpressed
p2486
aVexperince
p2487
aVMediocre
p2488
aVTzamaret
p2489
aVletter
p2490
aVsmelly
p2491
aVprimarily
p2492
aVproportional
p2493
aVdownhill
p2494
aVNormal
p2495
aVspending
p2496
aVfluctuate
p2497
aVquestion
p2498
aVspecifically
p2499
aVoccupy
p2500
aVMuesli
p2501
aVCome
p2502
aV.I
p2503
aVWeizmann
p2504
aVbore
p2505
aVDeals
p2506
aVcloth
p2507
aVcompetition
p2508
aVlow-quality
p2509
aVgrind.The
p2510
aVAwesome
p2511
aVExcelent
p2512
aVmushy
p2513
aVhighlight
p2514
aVBanan
p2515
aVbell
p2516
aVrepulse
p2517
aVmeal-
p2518
aVsupervisor
p2519
aVworthwhile
p2520
aVDont
p2521
aVMcdonald
p2522
aVlikewise
p2523
aVChocolates
p2524
aVentrance
p2525
aVdisappoints
p2526
aVresto-cafe
p2527
aVpeace
p2528
aVHaSharon
p2529
aVaccross
p2530
aVforgo
p2531
aVJaffa-Jerusalem
p2532
aVGurion
p2533
aVtart
p2534
aVenergetic
p2535
aVoblige
p2536
aVkiosk
p2537
aVsmiley
p2538
aVbianca
p2539
aVWarmly
p2540
aVAh
p2541
aVgr8
p2542
aVcake.it
p2543
aVApparently
p2544
aVhello
p2545
aVEarlier
p2546
aVBased
p2547
aVbaruch
p2548
aVenjoyable
p2549
aVsuckao
p2550
aVbvd
p2551
aVAngelina
p2552
aVuniqueness
p2553
aVWords
p2554
aVsens
p2555
aVdislike
p2556
aVannoy
p2557
aVBig
p2558
aVgarden
p2559
aVRiyad
p2560
aVHanukkah
p2561
aVfacebook
p2562
aVdrinking
p2563
aVGazoz
p2564
aV.clean
p2565
aVrelation
p2566
aVhavent
p2567
aVpolenta
p2568
aVcrow
p2569
aVREALLY
p2570
aVbooth
p2571
aVuncomfortable
p2572
aVsausage
p2573
aVover-run
p2574
aVSHAKSHUKA
p2575
aVunsynchronized
p2576
aVfwirh
p2577
aVunhelpful
p2578
aVconsistently
p2579
aVrotten
p2580
aVvega
p2581
aVinfuse
p2582
aVAmerica
p2583
aVTapas
p2584
aVscenery
p2585
aVleg
p2586
aVcleanish
p2587
aVObviously
p2588
aVCreates
p2589
aVPrior
p2590
aVexplore
p2591
aVeverything-
p2592
aVsexy
p2593
aVTsomet
p2594
aVextreme
p2595
aVSelection
p2596
aVPalace
p2597
aV32
p2598
aVcasino
p2599
aVmosquito
p2600
aVweekday
p2601
aVmindblowing
p2602
aVmaker
p2603
aVapple
p2604
aVforbid
p2605
aVapt
p2606
aVNaamal
p2607
aVFB
p2608
aVapply
p2609
aVchilly
p2610
aVstaple
p2611
aVSarona
p2612
aVchocolatey
p2613
aVthirsty
p2614
aVthrow
p2615
aVBasically
p2616
aVDrak
p2617
aVsort
p2618
aVupcoming
p2619
aVimpress
p2620
aVlatke
p2621
aVGelateria
p2622
aVbaby
p2623
aVverity
p2624
aVtad
p2625
aVALL
p2626
aVpour
p2627
aV'no
p2628
aVdonut
p2629
aVpraise
p2630
aVclosing
p2631
aVtap
p2632
aVpatron
p2633
aVhiatus
p2634
aVsyrupy
p2635
aVblvd
p2636
aVtamper
p2637
aVpatronize
p2638
aVdelay
p2639
aVvaries
p2640
aV.Excellent
p2641
aVtoddler
p2642
aVmiracoulus
p2643
aVwallpaper
p2644
aVunforgivable
p2645
aVoverdress
p2646
aVbudge
p2647
aVMiddle
p2648
aVhonestly
p2649
aVallot
p2650
aVtakeaway
p2651
aVmartini
p2652
aVneglect
p2653
aVsoggy
p2654
aVhand-
p2655
aVknowledgable
p2656
aVsymbols
p2657
aVenclose
p2658
aVneurotic
p2659
aVle
p2660
aVTA
p2661
aVRAN
p2662
aVBuffet
p2663
aV2014
p2664
aVAttentive
p2665
aVCaesars
p2666
aVIbn
p2667
aVDim
p2668
aVkindness
p2669
aVnapkin
p2670
aV10pm
p2671
aVrisotto
p2672
aVdelightful
p2673
aVtruth
p2674
aVEXCELLENT
p2675
aVerratic
p2676
aVexperienced
p2677
aVFrom
p2678
aVtel-avivian
p2679
aVburekas
p2680
aVdipping
p2681
aVchic-est
p2682
aVsubsistuted
p2683
aVWhich
p2684
aVOily
p2685
aVcategory
p2686
aVbag
p2687
aVA.M.
p2688
aVAlways
p2689
aVcause
p2690
aVred
p2691
aVo.k
p2692
aVawait
p2693
aVumbrella
p2694
aVapologetically
p2695
aVFalafel
p2696
aVhard-to-keep
p2697
aVFirstly
p2698
aVembarrass
p2699
aVAnita
p2700
aVscary
p2701
aVconversation
p2702
aVhotchocolate
p2703
aVEnjoyed
p2704
aVEnticing
p2705
aVelse.i
p2706
aVLame
p2707
aVblowe
p2708
aVtzar
p2709
aVvery-very-very
p2710
aVfloral
p2711
aVsubmit
p2712
aVNaturally
p2713
aVsadly
p2714
aVordering
p2715
aVArlozorov
p2716
aVtouristy
p2717
aVperfectly
p2718
aVfinal
p2719
aVcabin
p2720
aV12-14
p2721
aVPlenty
p2722
aVshelf
p2723
aVapologise
p2724
aVsporadically
p2725
aVdiminish
p2726
aVBerger
p2727
aVliquid
p2728
aVbed
p2729
aVrate
p2730
aVtabs
p2731
aVtidy
p2732
aVOther
p2733
aVsundown
p2734
aV50/60
p2735
aVafraid
p2736
aVangle
p2737
aVona
p2738
aVsevice
p2739
aVYehuda/
p2740
aVtactic
p2741
aVworldwide
p2742
aVsounds.great
p2743
aVvarity
p2744
aVAsked
p2745
aVprove
p2746
aV24
p2747
aVrefreshing
p2748
aVLemonade
p2749
aVBfaol
p2750
aVbrew
p2751
aVnormally
p2752
aVoverrate
p2753
aVstove
p2754
aVWorth
p2755
aVdecade
p2756
aVMeanwhile
p2757
aVjar
p2758
aVbug
p2759
aVsurroundings
p2760
aVgirlie
p2761
aVregularly
p2762
aVlikely
p2763
aVSonoma
p2764
aVtiming
p2765
aVTHE
p2766
aVsmash
p2767
aVForget
p2768
aVshy
p2769
aVfridge
p2770
aVgram
p2771
aVfixed
p2772
aVrequirement
p2773
aVinventive
p2774
aVexists
p2775
aVpacket
p2776
aVfreeze
p2777
aVdesperate
p2778
aVlocation-busting
p2779
aVpacked
p2780
aVLasangniyas
p2781
aVcloser
p2782
aVwipped
p2783
aVclearing
p2784
aVnightmare
p2785
aVhorribly
p2786
aVKachol
p2787
aVsuperb
p2788
aVicecream
p2789
aVstate
p2790
aVs-l-o-w.
p2791
aVexellent
p2792
aVemail
p2793
aVspeed
p2794
aVKitchen
p2795
aVTLV-Jaffa
p2796
aVForum
p2797
aV*raw*
p2798
aVjoy
p2799
aVLandwers
p2800
aVdeliver
p2801
aVtoting
p2802
aVjob
p2803
aVcomplicate
p2804
aV930pm
p2805
aVempathy
p2806
aVtlv
p2807
aVHayarkon
p2808
aVincident
p2809
aVdoorway
p2810
aVswim
p2811
aVswallow
p2812
aVestimation
p2813
aVcomment
p2814
aVbreakfast/brunch
p2815
aV'warmers
p2816
aVFinally
p2817
aVplace.service
p2818
aVMusic
p2819
aV600
p2820
aVrusty
p2821
aVSalmon
p2822
aVnon-professional
p2823
aVa-m-a-z-i-n-g.
p2824
aVrich-
p2825
aVrestaurant/bakery
p2826
aVThursday
p2827
aVfellow
p2828
aVappetising
p2829
aVFondo
p2830
aVpretentious
p2831
aV2013
p2832
aVfault
p2833
aV2007
p2834
aVfrustrating
p2835
aVAny
p2836
aV~
p2837
aVmutant
p2838
aVav
p2839
aVsurprisingly
p2840
aVripp
p2841
aVoptimistic
p2842
aVPretty
p2843
aVclaimed
p2844
aVShabazi
p2845
aVOrders
p2846
aVconnection
p2847
aVmember
p2848
aVOmelet
p2849
aVeclectic
p2850
aVdifficult
p2851
aVGreg
p2852
aVmagician
p2853
aVOrder
p2854
aVmoney.Since
p2855
aVmasochist
p2856
aVacknowledgement
p2857
aVALWAYS
p2858
aVflummox
p2859
aVofr
p2860
aVcommand
p2861
aVNeed
p2862
aVposition
p2863
aVmuscle
p2864
aVLOVED
p2865
aVrefer
p2866
aVproximity
p2867
aVpistacchio
p2868
aVinterim
p2869
aVearshot
p2870
aVdinning
p2871
aVwen
p2872
aVbench
p2873
aVBu
p2874
aVattractive
p2875
aVadn
p2876
aVteriyaki
p2877
aVkick
p2878
aVSalad
p2879
aVJaffo
p2880
aVBelow
p2881
aVimmediately
p2882
aVPastries
p2883
aVCookies
p2884
aVincredibly
p2885
aVfinnish
p2886
aVB.
p2887
aV11pm
p2888
aVDesserts
p2889
aVpage
p2890
aVheel
p2891
aVfettuccini
p2892
aVhail
p2893
aV12pm
p2894
aVSut
p2895
aVvetables
p2896
aVproper
p2897
aVself-prepared
p2898
aVhappens
p2899
aVtrust
p2900
aVtruffle
p2901
aVcomical
p2902
aVnoise
p2903
aVaweful-
p2904
aVinaccurate
p2905
aVderserts
p2906
aVshoko
p2907
aVsnapper
p2908
aVworthy
p2909
aVpaste
p2910
aVbeaker
p2911
aVrare
p2912
aVsmartly
p2913
aVbiscuit
p2914
aVsumer
p2915
aVeddible
p2916
aViPads
p2917
aV-MOLD
p2918
aVOpened
p2919
aVel
p2920
aVbarrista
p2921
aVshoppy
p2922
aVTwo
p2923
aVcocoa
p2924
aVbureakas
p2925
aVbrush
p2926
aVpervious
p2927
aVquest
p2928
aVUpon
p2929
aVVegan
p2930
aVbump
p2931
aVVegas
p2932
aVtepid
p2933
aVdamn
p2934
aVNovember
p2935
aVvat
p2936
aVnorth
p2937
aVextended
p2938
aVcusomer
p2939
aVhi
p2940
aVho
p2941
aVliquor
p2942
aVsheckel
p2943
aVear
p2944
aVcoffee.No
p2945
aVpartially
p2946
aVfellow-patrons
p2947
aVevident
p2948
aVGreen
p2949
aVdistract
p2950
aV250
p2951
aVexcruciatingly
p2952
aVwifi
p2953
aVsirloin
p2954
aVregularily
p2955
aVpig
p2956
aVboardwalk
p2957
aVCaffe
p2958
aV21.00
p2959
aVshooting
p2960
aVfettuccine
p2961
aVLiquid
p2962
aV48
p2963
aV46
p2964
aVpercent
p2965
aVdishes-my
p2966
aV41
p2967
aVFive
p2968
aVwitness
p2969
aVwing
p2970
aVIsareli
p2971
aVLike
p2972
aVecstatic
p2973
aVTWO
p2974
aVsooooo
p2975
aVfreazer
p2976
aVkosherout
p2977
aVshrank
p2978
aV25.00
p2979
aVappoint
p2980
aVcoffee/
p2981
aVlukewarm
p2982
aVOrderd
p2983
aVrule
p2984
aVamazimg
p2985
aVannouncer
p2986
aVunder-cooked
p2987
aVnuked
p2988
aVPhilly
p2989
aVboutique
p2990
aVliver
p2991
a.